; Function Attrs: mustprogress uwtable
define hidden void @_ZN4cvc58internal6theory11quantifiers13OracleCheckerC2ERNS0_3EnvE(ptr noundef nonnull align 8 dereferenceable(312) %0, ptr noundef nonnull align 8 dereferenceable(696) %1) unnamed_addr #3 align 2 personality ptr @__gxx_personality_v0 {
  tail call void @_ZN4cvc58internal6EnvObjC2ERNS0_3EnvE(ptr noundef nonnull align 8 dereferenceable(16) %0, ptr noundef nonnull align 8 dereferenceable(696) %1)
  %3 = getelementptr inbounds nuw i8, ptr %0, i64 16
  %4 = tail call noundef ptr @_ZNK4cvc58internal3Env14getNodeManagerEv(ptr noundef nonnull align 8 dereferenceable(696) %1)
  tail call void @_ZN4cvc58internal13NodeConverterC2EPNS0_11NodeManagerEb(ptr noundef nonnull align 8 dereferenceable(241) %3, ptr noundef %4, i1 noundef zeroext true)
  store ptr getelementptr inbounds nuw inrange(-16, 24) (i8, ptr @_ZTVN4cvc58internal6theory11quantifiers13OracleCheckerE, i64 16), ptr %0, align 8, !tbaa !3
  store ptr getelementptr inbounds nuw inrange(-16, 64) (i8, ptr @_ZTVN4cvc58internal6theory11quantifiers13OracleCheckerE, i64 56), ptr %3, align 8, !tbaa !3
  %5 = getelementptr inbounds nuw i8, ptr %0, i64 272
  store i32 0, ptr %5, align 8, !tbaa !6
  %6 = getelementptr inbounds nuw i8, ptr %0, i64 280
  store ptr null, ptr %6, align 8, !tbaa !14
  %7 = getelementptr inbounds nuw i8, ptr %0, i64 288
  store ptr %5, ptr %7, align 8, !tbaa !15
  %8 = getelementptr inbounds nuw i8, ptr %0, i64 296
  store ptr %5, ptr %8, align 8, !tbaa !16
  %9 = getelementptr inbounds nuw i8, ptr %0, i64 304
  store i64 0, ptr %9, align 8, !tbaa !17
  ret void
}